; Function Attrs: nofree nounwind memory(read, inaccessiblemem: none) uwtable
define i32 @Scl_LibertyItemNum(ptr noundef readonly captures(none) %0, ptr noundef readonly captures(none) %1, ptr noundef readonly captures(none) %2) local_unnamed_addr #6 {
  %4 = getelementptr inbounds nuw i8, ptr %1, i64 36
  %5 = load i32, ptr %4, align 4
  %6 = icmp slt i32 %5, 0
  br i1 %6, label %._crit_edge, label %Scl_LibertyItem.exit

Scl_LibertyItem.exit:                             ; preds = %3
  %7 = getelementptr inbounds nuw i8, ptr %0, i64 40
  %8 = load ptr, ptr %7, align 8
  %.not15 = icmp eq ptr %8, null
  br i1 %.not15, label %._crit_edge, label %.lr.ph

.lr.ph:                                           ; preds = %Scl_LibertyItem.exit
  %9 = zext nneg i32 %5 to i64
  %10 = getelementptr inbounds nuw %struct.Scl_Item_t_, ptr %8, i64 %9
  %11 = getelementptr i8, ptr %0, i64 8
  %.val = load ptr, ptr %11, align 8
  %12 = getelementptr inbounds nuw i8, ptr %0, i64 40
  br label %13

13:                                               ; preds = %.lr.ph, %Scl_LibertyItem.exit11
  %.017 = phi i32 [ 0, %.lr.ph ], [ %24, %Scl_LibertyItem.exit11 ]
  %.0916 = phi ptr [ %10, %.lr.ph ], [ %30, %Scl_LibertyItem.exit11 ]
  %14 = getelementptr inbounds nuw i8, ptr %.0916, i64 8
  %15 = load i64, ptr %14, align 4
  %.sroa.0.0.extract.trunc.i = trunc i64 %15 to i32
  %.sroa.4.0.extract.shift.i = lshr i64 %15, 32
  %.sroa.4.0.extract.trunc.i = trunc nuw i64 %.sroa.4.0.extract.shift.i to i32
  %sext.i = shl i64 %15, 32
  %16 = ashr exact i64 %sext.i, 32
  %17 = getelementptr inbounds i8, ptr %.val, i64 %16
  %18 = sub nsw i32 %.sroa.4.0.extract.trunc.i, %.sroa.0.0.extract.trunc.i
  %19 = sext i32 %18 to i64
  %20 = tail call i32 @strncmp(ptr noundef readonly %17, ptr noundef readonly %2, i64 noundef %19) #30
  %.not.i = icmp eq i32 %20, 0
  br i1 %.not.i, label %Scl_LibertyCompare.exit, label %Scl_LibertyCompare.exit.thread

Scl_LibertyCompare.exit:                          ; preds = %13
  %21 = tail call i64 @strlen(ptr noundef nonnull readonly dereferenceable(1) %2) #30
  %22 = trunc i64 %21 to i32
  %.not14 = icmp eq i32 %18, %22
  %cond.fr = freeze i1 %.not14
  %23 = zext i1 %cond.fr to i32
  %spec.select = add nsw i32 %.017, %23
  br label %Scl_LibertyCompare.exit.thread

Scl_LibertyCompare.exit.thread:                   ; preds = %Scl_LibertyCompare.exit, %13
  %24 = phi i32 [ %.017, %13 ], [ %spec.select, %Scl_LibertyCompare.exit ]
  %25 = getelementptr inbounds nuw i8, ptr %.0916, i64 32
  %26 = load i32, ptr %25, align 4
  %27 = icmp slt i32 %26, 0
  br i1 %27, label %._crit_edge, label %Scl_LibertyItem.exit11

Scl_LibertyItem.exit11:                           ; preds = %Scl_LibertyCompare.exit.thread
  %28 = load ptr, ptr %12, align 8
  %29 = zext nneg i32 %26 to i64
  %30 = getelementptr inbounds nuw %struct.Scl_Item_t_, ptr %28, i64 %29
  %.not = icmp eq ptr %28, null
  br i1 %.not, label %._crit_edge, label %13, !llvm.loop !13

._crit_edge:                                      ; preds = %Scl_LibertyCompare.exit.thread, %Scl_LibertyItem.exit11, %3, %Scl_LibertyItem.exit
  %.0.lcssa = phi i32 [ 0, %Scl_LibertyItem.exit ], [ 0, %3 ], [ %24, %Scl_LibertyItem.exit11 ], [ %24, %Scl_LibertyCompare.exit.thread ]
  ret i32 %.0.lcssa
}